#include <math.h>
#include <stdio.h>
#include <stdlib.h>
#include <string.h>

int main()
{
	int an[100][100];
	int i,j,m,n,k,s;
	scanf("%d%d",&n,&m);
	for(j=0;j<n;j++)
	{
		for(i=0;i<m;i++) scanf("%d",&an[i][j]);
	}
	s=0;
    for(k=0;k<m/2&&k<n/2;k++)
		{
            for(i=k;i<m-k-1;i++) printf("%d\n",an[i][k]);
		    for(j=k;j<n-k-1;j++) printf("%d\n",an[m-k-1][j]);
			for(i=m-k-1;i>k;i--) printf("%d\n",an[i][n-k-1]);
			for(j=n-k-1;j>k;j--) printf("%d\n",an[k][j]);
			s=s+2*(m+n-4*k-2);
		}
	if(s!=m*n)
	{
		if(m<n) { for(j=k;j<n-k;j++) printf("%d\n",an[k][j]);}
		if(m>n) { for(i=k;i<m-k;i++) printf("%d\n",an[i][k]);}
		if(m==n) printf("%d\n",an[k][k]);
	}
    return 0;
}