; ModuleID = '46/993.c'
source_filename = "46/993.c"
target datalayout = "e-m:e-p270:32:32-p271:32:32-p272:64:64-i64:64-f80:128-n8:16:32:64-S128"
target triple = "x86_64-pc-linux-gnu"

@.str = private unnamed_addr constant [5 x i8] c"%d%d\00", align 1
@.str.1 = private unnamed_addr constant [3 x i8] c"%d\00", align 1
@.str.2 = private unnamed_addr constant [4 x i8] c"%d\0A\00", align 1

; Function Attrs: noinline nounwind uwtable
define dso_local i32 @main() #0 {
  %1 = alloca i32, align 4
  %2 = alloca [100 x [100 x i32]], align 16
  %3 = alloca i32, align 4
  %4 = alloca i32, align 4
  %5 = alloca i32, align 4
  %6 = alloca i32, align 4
  %7 = alloca i32, align 4
  %8 = alloca i32, align 4
  store i32 0, i32* %1, align 4
  %9 = call i32 (i8*, ...) @__isoc99_scanf(i8* getelementptr inbounds ([5 x i8], [5 x i8]* @.str, i64 0, i64 0), i32* %6, i32* %5)
  store i32 0, i32* %4, align 4
  br label %10

10:                                               ; preds = %31, %0
  %11 = load i32, i32* %4, align 4
  %12 = load i32, i32* %6, align 4
  %13 = icmp slt i32 %11, %12
  br i1 %13, label %14, label %34

14:                                               ; preds = %10
  store i32 0, i32* %3, align 4
  br label %15

15:                                               ; preds = %27, %14
  %16 = load i32, i32* %3, align 4
  %17 = load i32, i32* %5, align 4
  %18 = icmp slt i32 %16, %17
  br i1 %18, label %19, label %30

19:                                               ; preds = %15
  %20 = load i32, i32* %3, align 4
  %21 = sext i32 %20 to i64
  %22 = getelementptr inbounds [100 x [100 x i32]], [100 x [100 x i32]]* %2, i64 0, i64 %21
  %23 = load i32, i32* %4, align 4
  %24 = sext i32 %23 to i64
  %25 = getelementptr inbounds [100 x i32], [100 x i32]* %22, i64 0, i64 %24
  %26 = call i32 (i8*, ...) @__isoc99_scanf(i8* getelementptr inbounds ([3 x i8], [3 x i8]* @.str.1, i64 0, i64 0), i32* %25)
  br label %27

27:                                               ; preds = %19
  %28 = load i32, i32* %3, align 4
  %29 = add nsw i32 %28, 1
  store i32 %29, i32* %3, align 4
  br label %15

30:                                               ; preds = %15
  br label %31

31:                                               ; preds = %30
  %32 = load i32, i32* %4, align 4
  %33 = add nsw i32 %32, 1
  store i32 %33, i32* %4, align 4
  br label %10

34:                                               ; preds = %10
  store i32 0, i32* %8, align 4
  store i32 0, i32* %7, align 4
  br label %35

35:                                               ; preds = %148, %34
  %36 = load i32, i32* %7, align 4
  %37 = load i32, i32* %5, align 4
  %38 = sdiv i32 %37, 2
  %39 = icmp slt i32 %36, %38
  br i1 %39, label %40, label %45

40:                                               ; preds = %35
  %41 = load i32, i32* %7, align 4
  %42 = load i32, i32* %6, align 4
  %43 = sdiv i32 %42, 2
  %44 = icmp slt i32 %41, %43
  br label %45

45:                                               ; preds = %40, %35
  %46 = phi i1 [ false, %35 ], [ %44, %40 ]
  br i1 %46, label %47, label %151

47:                                               ; preds = %45
  %48 = load i32, i32* %7, align 4
  store i32 %48, i32* %3, align 4
  br label %49

49:                                               ; preds = %65, %47
  %50 = load i32, i32* %3, align 4
  %51 = load i32, i32* %5, align 4
  %52 = load i32, i32* %7, align 4
  %53 = sub nsw i32 %51, %52
  %54 = sub nsw i32 %53, 1
  %55 = icmp slt i32 %50, %54
  br i1 %55, label %56, label %68

56:                                               ; preds = %49
  %57 = load i32, i32* %3, align 4
  %58 = sext i32 %57 to i64
  %59 = getelementptr inbounds [100 x [100 x i32]], [100 x [100 x i32]]* %2, i64 0, i64 %58
  %60 = load i32, i32* %7, align 4
  %61 = sext i32 %60 to i64
  %62 = getelementptr inbounds [100 x i32], [100 x i32]* %59, i64 0, i64 %61
  %63 = load i32, i32* %62, align 4
  %64 = call i32 (i8*, ...) @printf(i8* getelementptr inbounds ([4 x i8], [4 x i8]* @.str.2, i64 0, i64 0), i32 %63)
  br label %65

65:                                               ; preds = %56
  %66 = load i32, i32* %3, align 4
  %67 = add nsw i32 %66, 1
  store i32 %67, i32* %3, align 4
  br label %49

68:                                               ; preds = %49
  %69 = load i32, i32* %7, align 4
  store i32 %69, i32* %4, align 4
  br label %70

70:                                               ; preds = %89, %68
  %71 = load i32, i32* %4, align 4
  %72 = load i32, i32* %6, align 4
  %73 = load i32, i32* %7, align 4
  %74 = sub nsw i32 %72, %73
  %75 = sub nsw i32 %74, 1
  %76 = icmp slt i32 %71, %75
  br i1 %76, label %77, label %92

77:                                               ; preds = %70
  %78 = load i32, i32* %5, align 4
  %79 = load i32, i32* %7, align 4
  %80 = sub nsw i32 %78, %79
  %81 = sub nsw i32 %80, 1
  %82 = sext i32 %81 to i64
  %83 = getelementptr inbounds [100 x [100 x i32]], [100 x [100 x i32]]* %2, i64 0, i64 %82
  %84 = load i32, i32* %4, align 4
  %85 = sext i32 %84 to i64
  %86 = getelementptr inbounds [100 x i32], [100 x i32]* %83, i64 0, i64 %85
  %87 = load i32, i32* %86, align 4
  %88 = call i32 (i8*, ...) @printf(i8* getelementptr inbounds ([4 x i8], [4 x i8]* @.str.2, i64 0, i64 0), i32 %87)
  br label %89

89:                                               ; preds = %77
  %90 = load i32, i32* %4, align 4
  %91 = add nsw i32 %90, 1
  store i32 %91, i32* %4, align 4
  br label %70

92:                                               ; preds = %70
  %93 = load i32, i32* %5, align 4
  %94 = load i32, i32* %7, align 4
  %95 = sub nsw i32 %93, %94
  %96 = sub nsw i32 %95, 1
  store i32 %96, i32* %3, align 4
  br label %97

97:                                               ; preds = %113, %92
  %98 = load i32, i32* %3, align 4
  %99 = load i32, i32* %7, align 4
  %100 = icmp sgt i32 %98, %99
  br i1 %100, label %101, label %116

101:                                              ; preds = %97
  %102 = load i32, i32* %3, align 4
  %103 = sext i32 %102 to i64
  %104 = getelementptr inbounds [100 x [100 x i32]], [100 x [100 x i32]]* %2, i64 0, i64 %103
  %105 = load i32, i32* %6, align 4
  %106 = load i32, i32* %7, align 4
  %107 = sub nsw i32 %105, %106
  %108 = sub nsw i32 %107, 1
  %109 = sext i32 %108 to i64
  %110 = getelementptr inbounds [100 x i32], [100 x i32]* %104, i64 0, i64 %109
  %111 = load i32, i32* %110, align 4
  %112 = call i32 (i8*, ...) @printf(i8* getelementptr inbounds ([4 x i8], [4 x i8]* @.str.2, i64 0, i64 0), i32 %111)
  br label %113

113:                                              ; preds = %101
  %114 = load i32, i32* %3, align 4
  %115 = add nsw i32 %114, -1
  store i32 %115, i32* %3, align 4
  br label %97

116:                                              ; preds = %97
  %117 = load i32, i32* %6, align 4
  %118 = load i32, i32* %7, align 4
  %119 = sub nsw i32 %117, %118
  %120 = sub nsw i32 %119, 1
  store i32 %120, i32* %4, align 4
  br label %121

121:                                              ; preds = %134, %116
  %122 = load i32, i32* %4, align 4
  %123 = load i32, i32* %7, align 4
  %124 = icmp sgt i32 %122, %123
  br i1 %124, label %125, label %137

125:                                              ; preds = %121
  %126 = load i32, i32* %7, align 4
  %127 = sext i32 %126 to i64
  %128 = getelementptr inbounds [100 x [100 x i32]], [100 x [100 x i32]]* %2, i64 0, i64 %127
  %129 = load i32, i32* %4, align 4
  %130 = sext i32 %129 to i64
  %131 = getelementptr inbounds [100 x i32], [100 x i32]* %128, i64 0, i64 %130
  %132 = load i32, i32* %131, align 4
  %133 = call i32 (i8*, ...) @printf(i8* getelementptr inbounds ([4 x i8], [4 x i8]* @.str.2, i64 0, i64 0), i32 %132)
  br label %134

134:                                              ; preds = %125
  %135 = load i32, i32* %4, align 4
  %136 = add nsw i32 %135, -1
  store i32 %136, i32* %4, align 4
  br label %121

137:                                              ; preds = %121
  %138 = load i32, i32* %8, align 4
  %139 = load i32, i32* %5, align 4
  %140 = load i32, i32* %6, align 4
  %141 = add nsw i32 %139, %140
  %142 = load i32, i32* %7, align 4
  %143 = mul nsw i32 4, %142
  %144 = sub nsw i32 %141, %143
  %145 = sub nsw i32 %144, 2
  %146 = mul nsw i32 2, %145
  %147 = add nsw i32 %138, %146
  store i32 %147, i32* %8, align 4
  br label %148

148:                                              ; preds = %137
  %149 = load i32, i32* %7, align 4
  %150 = add nsw i32 %149, 1
  store i32 %150, i32* %7, align 4
  br label %35

151:                                              ; preds = %45
  %152 = load i32, i32* %8, align 4
  %153 = load i32, i32* %5, align 4
  %154 = load i32, i32* %6, align 4
  %155 = mul nsw i32 %153, %154
  %156 = icmp ne i32 %152, %155
  br i1 %156, label %157, label %221

157:                                              ; preds = %151
  %158 = load i32, i32* %5, align 4
  %159 = load i32, i32* %6, align 4
  %160 = icmp slt i32 %158, %159
  br i1 %160, label %161, label %182

161:                                              ; preds = %157
  %162 = load i32, i32* %7, align 4
  store i32 %162, i32* %4, align 4
  br label %163

163:                                              ; preds = %178, %161
  %164 = load i32, i32* %4, align 4
  %165 = load i32, i32* %6, align 4
  %166 = load i32, i32* %7, align 4
  %167 = sub nsw i32 %165, %166
  %168 = icmp slt i32 %164, %167
  br i1 %168, label %169, label %181

169:                                              ; preds = %163
  %170 = load i32, i32* %7, align 4
  %171 = sext i32 %170 to i64
  %172 = getelementptr inbounds [100 x [100 x i32]], [100 x [100 x i32]]* %2, i64 0, i64 %171
  %173 = load i32, i32* %4, align 4
  %174 = sext i32 %173 to i64
  %175 = getelementptr inbounds [100 x i32], [100 x i32]* %172, i64 0, i64 %174
  %176 = load i32, i32* %175, align 4
  %177 = call i32 (i8*, ...) @printf(i8* getelementptr inbounds ([4 x i8], [4 x i8]* @.str.2, i64 0, i64 0), i32 %176)
  br label %178

178:                                              ; preds = %169
  %179 = load i32, i32* %4, align 4
  %180 = add nsw i32 %179, 1
  store i32 %180, i32* %4, align 4
  br label %163

181:                                              ; preds = %163
  br label %182

182:                                              ; preds = %181, %157
  %183 = load i32, i32* %5, align 4
  %184 = load i32, i32* %6, align 4
  %185 = icmp sgt i32 %183, %184
  br i1 %185, label %186, label %207

186:                                              ; preds = %182
  %187 = load i32, i32* %7, align 4
  store i32 %187, i32* %3, align 4
  br label %188

188:                                              ; preds = %203, %186
  %189 = load i32, i32* %3, align 4
  %190 = load i32, i32* %5, align 4
  %191 = load i32, i32* %7, align 4
  %192 = sub nsw i32 %190, %191
  %193 = icmp slt i32 %189, %192
  br i1 %193, label %194, label %206

194:                                              ; preds = %188
  %195 = load i32, i32* %3, align 4
  %196 = sext i32 %195 to i64
  %197 = getelementptr inbounds [100 x [100 x i32]], [100 x [100 x i32]]* %2, i64 0, i64 %196
  %198 = load i32, i32* %7, align 4
  %199 = sext i32 %198 to i64
  %200 = getelementptr inbounds [100 x i32], [100 x i32]* %197, i64 0, i64 %199
  %201 = load i32, i32* %200, align 4
  %202 = call i32 (i8*, ...) @printf(i8* getelementptr inbounds ([4 x i8], [4 x i8]* @.str.2, i64 0, i64 0), i32 %201)
  br label %203

203:                                              ; preds = %194
  %204 = load i32, i32* %3, align 4
  %205 = add nsw i32 %204, 1
  store i32 %205, i32* %3, align 4
  br label %188

206:                                              ; preds = %188
  br label %207

207:                                              ; preds = %206, %182
  %208 = load i32, i32* %5, align 4
  %209 = load i32, i32* %6, align 4
  %210 = icmp eq i32 %208, %209
  br i1 %210, label %211, label %220

211:                                              ; preds = %207
  %212 = load i32, i32* %7, align 4
  %213 = sext i32 %212 to i64
  %214 = getelementptr inbounds [100 x [100 x i32]], [100 x [100 x i32]]* %2, i64 0, i64 %213
  %215 = load i32, i32* %7, align 4
  %216 = sext i32 %215 to i64
  %217 = getelementptr inbounds [100 x i32], [100 x i32]* %214, i64 0, i64 %216
  %218 = load i32, i32* %217, align 4
  %219 = call i32 (i8*, ...) @printf(i8* getelementptr inbounds ([4 x i8], [4 x i8]* @.str.2, i64 0, i64 0), i32 %218)
  br label %220

220:                                              ; preds = %211, %207
  br label %221

221:                                              ; preds = %220, %151
  ret i32 0
}

declare dso_local i32 @__isoc99_scanf(i8*, ...) #1

declare dso_local i32 @printf(i8*, ...) #1


!llvm.module.flags = !{!0}
!llvm.ident = !{!1}

!0 = !{i32 1, !"wchar_size", i32 4}
!1 = !{!"clang version 10.0.0-4ubuntu1 "}
